	.cpu arm7tdmi
	.eabi_attribute 20, 1
	.eabi_attribute 21, 1
	.eabi_attribute 23, 3
	.eabi_attribute 24, 1
	.eabi_attribute 25, 1
	.eabi_attribute 26, 1
	.eabi_attribute 30, 2
	.eabi_attribute 34, 0
	.eabi_attribute 18, 4
	.file	"game.c"
	.text
	.align	2
	.global	dispBackground
	.arch armv4t
	.syntax unified
	.arm
	.fpu softvfp
	.type	dispBackground, %function
dispBackground:
	@ Function supports interworking.
	@ args = 0, pretend = 0, frame = 0
	@ frame_needed = 0, uses_anonymous_args = 0
	push	{r4, r5, r6, lr}
	mov	r2, #768
	mov	r5, #67108864
	ldr	r4, .L4
	strh	r2, [r5]	@ movhi
	mov	r3, #256
	mov	r2, #83886080
	mov	r0, #3
	ldr	r1, .L4+4
	mov	lr, pc
	bx	r4
	mov	r2, #7936
	mov	r3, #1888
	strh	r2, [r5, #10]	@ movhi
	mov	r0, #3
	mov	r2, #100663296
	ldr	r1, .L4+8
	mov	lr, pc
	bx	r4
	mov	r3, #2048
	mov	r0, #3
	ldr	r2, .L4+12
	ldr	r1, .L4+16
	mov	lr, pc
	bx	r4
	ldr	r2, .L4+20
	mov	r3, #544
	strh	r2, [r5, #8]	@ movhi
	mov	r0, #3
	ldr	r2, .L4+24
	ldr	r1, .L4+28
	mov	lr, pc
	bx	r4
	mov	r3, #1024
	ldr	r2, .L4+32
	mov	r0, #3
	ldr	r1, .L4+36
	mov	lr, pc
	bx	r4
	mov	r2, #0
	ldr	r3, .L4+40
	pop	{r4, r5, r6, lr}
	strh	r2, [r3]	@ movhi
	bx	lr
.L5:
	.align	2
.L4:
	.word	DMANow
	.word	bg0SpacePal
	.word	bg0SpaceTiles
	.word	100726784
	.word	bg0SpaceMap
	.word	7172
	.word	100679680
	.word	bg1StarsTiles
	.word	100720640
	.word	bg1StarsMap
	.word	hOff
	.size	dispBackground, .-dispBackground
	.align	2
	.global	initGame
	.syntax unified
	.arm
	.fpu softvfp
	.type	initGame, %function
initGame:
	@ Function supports interworking.
	@ args = 0, pretend = 0, frame = 0
	@ frame_needed = 0, uses_anonymous_args = 0
	@ link register save eliminated.
	b	dispBackground
	.size	initGame, .-initGame
	.align	2
	.global	updateGame
	.syntax unified
	.arm
	.fpu softvfp
	.type	updateGame, %function
updateGame:
	@ Function supports interworking.
	@ args = 0, pretend = 0, frame = 0
	@ frame_needed = 0, uses_anonymous_args = 0
	push	{r4, lr}
	ldr	r3, .L9
	mov	lr, pc
	bx	r3
	pop	{r4, lr}
	bx	lr
.L10:
	.align	2
.L9:
	.word	parallax
	.size	updateGame, .-updateGame
	.comm	shadowOAM,1024,4
	.comm	hOff_2,2,2
	.comm	hOff,2,2
	.ident	"GCC: (devkitARM release 53) 9.1.0"
